target datalayout = "e-m:e-p270:32:32-p271:32:32-p272:64:64-i64:64-i128:128-f80:128-n8:16:32:64-S128"
target triple = "x86_64-pc-linux-gnu"

%struct._zend_array = type { %struct._zend_refcounted_h, %union.anon.17, i32, %union.anon.19, i32, i32, i32, i32, i64, ptr }
%struct._zend_refcounted_h = type { i32, %union.anon.16 }
%union.anon.16 = type { i32 }
%union.anon.17 = type { i32 }
%union.anon.19 = type { ptr }
%struct._zend_stack = type { i32, i32, i32, ptr }
%struct._zend_executor_globals = type { %struct._zval_struct, %struct._zval_struct, [32 x ptr], ptr, ptr, %struct._zend_array, %struct._zend_array, ptr, i32, i32, ptr, ptr, ptr, ptr, ptr, ptr, i64, ptr, ptr, i32, i32, i64, i32, i32, i32, i8, i8, %struct.zend_atomic_bool_s, %struct.zend_atomic_bool_s, ptr, i64, ptr, ptr, %struct._zend_array, %struct._zend_array, i32, i8, %struct._zval_struct, %struct._zval_struct, %struct._zend_stack, %struct._zend_stack, %struct._zend_stack, ptr, i32, i32, i64, ptr, ptr, ptr, %struct._zend_objects_store, ptr, ptr, ptr, [3 x %struct._zend_op], ptr, i8, i8, i64, i32, i32, ptr, [16 x %struct._HashTableIterator], ptr, %union._zend_function, %struct._zend_op, %struct._zend_array, i64, %struct.zend_get_gc_buffer, ptr, ptr, ptr, i64, i8, i32, ptr, ptr, i64, %struct._zend_call_stack, i64, i64, [6 x ptr] }
%struct.zend_atomic_bool_s = type { i8 }
%struct._zval_struct = type { %union._zend_value, %union.anon.21, %union.anon.24 }
%union._zend_value = type { i64 }
%union.anon.21 = type { i32 }
%union.anon.24 = type { i32 }
%struct._zend_objects_store = type { ptr, i32, i32, i32 }
%struct._HashTableIterator = type { ptr, i32, i32 }
%union._zend_function = type { %struct._zend_op_array }
%struct._zend_op_array = type { i8, [3 x i8], i32, ptr, ptr, ptr, i32, i32, ptr, ptr, ptr, ptr, i32, i32, i32, i32, ptr, ptr, ptr, ptr, ptr, i32, i32, ptr, ptr, ptr, i32, i32, i32, i32, ptr, ptr, [6 x ptr] }
%struct._zend_op = type { ptr, %union._znode_op, %union._znode_op, %union._znode_op, i32, i32, i8, i8, i8, i8 }
%union._znode_op = type { i32 }
%struct.zend_get_gc_buffer = type { ptr, ptr, ptr }
%struct._zend_call_stack = type { ptr, i64 }
%struct._zend_execute_data = type { ptr, ptr, ptr, ptr, %struct._zval_struct, ptr, ptr, ptr, ptr }
%struct.anon.25 = type { i8, [3 x i8], i32, ptr, ptr, ptr, i32, i32, ptr, ptr, ptr, ptr, i32 }
%struct._zend_refcounted = type { %struct._zend_refcounted_h }
%struct.zend_type = type { ptr, i32 }
%struct._zend_property_info = type { i32, i32, ptr, ptr, ptr, ptr, %struct.zend_type }
%struct._zend_reference = type { %struct._zend_refcounted_h, %struct._zval_struct, %union.zend_property_info_source_list }
%union.zend_property_info_source_list = type { ptr }

@executor_globals = external global %struct._zend_executor_globals, align 8

; Function Attrs: nounwind uwtable
define internal void @zend_jit_post_dec_typed_prop(ptr noundef %0, ptr noundef %1, ptr noundef %2) #0 {
  %4 = alloca ptr, align 8
  %5 = alloca ptr, align 8
  %6 = alloca ptr, align 8
  %7 = alloca ptr, align 8
  %8 = alloca ptr, align 8
  %9 = alloca ptr, align 8
  %10 = alloca ptr, align 8
  %11 = alloca ptr, align 8
  %12 = alloca ptr, align 8
  %13 = alloca ptr, align 8
  %14 = alloca ptr, align 8
  %15 = alloca i32, align 4
  %16 = alloca i64, align 8
  %17 = alloca ptr, align 8
  %18 = alloca ptr, align 8
  %19 = alloca ptr, align 8
  %20 = alloca ptr, align 8
  %21 = alloca i32, align 4
  store ptr %0, ptr %8, align 8
  store ptr %1, ptr %9, align 8
  store ptr %2, ptr %10, align 8
  %22 = load ptr, ptr %9, align 8
  %23 = getelementptr inbounds %struct._zend_property_info, ptr %22, i32 0, i32 1
  %24 = load i32, ptr %23, align 4
  %25 = and i32 %24, 128
  %26 = icmp ne i32 %25, 0
  br i1 %26, label %27, label %34

27:                                               ; preds = %3
  %28 = load ptr, ptr %8, align 8
  %29 = getelementptr inbounds %struct._zval_struct, ptr %28, i32 0, i32 2
  %30 = load i32, ptr %29, align 4
  %31 = and i32 %30, 2
  %32 = icmp ne i32 %31, 0
  %33 = xor i1 %32, true
  br label %34

34:                                               ; preds = %27, %3
  %35 = phi i1 [ false, %3 ], [ %33, %27 ]
  %36 = xor i1 %35, true
  %37 = xor i1 %36, true
  %38 = zext i1 %37 to i32
  %39 = sext i32 %38 to i64
  %40 = icmp ne i64 %39, 0
  br i1 %40, label %41, label %51

41:                                               ; preds = %34
  %42 = load ptr, ptr %9, align 8
  call void @zend_readonly_property_modification_error(ptr noundef %42)
  %43 = load ptr, ptr %10, align 8
  %44 = icmp ne ptr %43, null
  br i1 %44, label %45, label %50

45:                                               ; preds = %41
  br label %46

46:                                               ; preds = %45
  %47 = load ptr, ptr %10, align 8
  %48 = getelementptr inbounds %struct._zval_struct, ptr %47, i32 0, i32 1
  store i32 0, ptr %48, align 8
  br label %49

49:                                               ; preds = %46
  br label %50

50:                                               ; preds = %49, %41
  br label %191

51:                                               ; preds = %34
  %52 = load ptr, ptr getelementptr inbounds (%struct._zend_executor_globals, ptr @executor_globals, i32 0, i32 17), align 8
  store ptr %52, ptr %11, align 8
  br label %53

53:                                               ; preds = %51
  %54 = load ptr, ptr %8, align 8
  store ptr %54, ptr %5, align 8
  %55 = load ptr, ptr %5, align 8
  %56 = getelementptr inbounds %struct._zval_struct, ptr %55, i32 0, i32 1
  %57 = load i8, ptr %56, align 8
  %58 = zext i8 %57 to i32
  %59 = icmp eq i32 %58, 10
  %60 = xor i1 %59, true
  %61 = xor i1 %60, true
  %62 = zext i1 %61 to i32
  %63 = sext i32 %62 to i64
  %64 = icmp ne i64 %63, 0
  br i1 %64, label %65, label %70

65:                                               ; preds = %53
  %66 = load ptr, ptr %8, align 8
  %67 = getelementptr inbounds %struct._zval_struct, ptr %66, i32 0, i32 0
  %68 = load ptr, ptr %67, align 8
  %69 = getelementptr inbounds %struct._zend_reference, ptr %68, i32 0, i32 1
  store ptr %69, ptr %8, align 8
  br label %70

70:                                               ; preds = %65, %53
  br label %71

71:                                               ; preds = %70
  br label %72

72:                                               ; preds = %71
  %73 = load ptr, ptr %10, align 8
  store ptr %73, ptr %12, align 8
  %74 = load ptr, ptr %8, align 8
  store ptr %74, ptr %13, align 8
  %75 = load ptr, ptr %13, align 8
  %76 = getelementptr inbounds %struct._zval_struct, ptr %75, i32 0, i32 0
  %77 = load ptr, ptr %76, align 8
  store ptr %77, ptr %14, align 8
  %78 = load ptr, ptr %13, align 8
  %79 = getelementptr inbounds %struct._zval_struct, ptr %78, i32 0, i32 1
  %80 = load i32, ptr %79, align 8
  store i32 %80, ptr %15, align 4
  br label %81

81:                                               ; preds = %72
  %82 = load ptr, ptr %14, align 8
  %83 = load ptr, ptr %12, align 8
  %84 = getelementptr inbounds %struct._zval_struct, ptr %83, i32 0, i32 0
  store ptr %82, ptr %84, align 8
  %85 = load i32, ptr %15, align 4
  %86 = load ptr, ptr %12, align 8
  %87 = getelementptr inbounds %struct._zval_struct, ptr %86, i32 0, i32 1
  store i32 %85, ptr %87, align 8
  br label %88

88:                                               ; preds = %81
  %89 = load i32, ptr %15, align 4
  %90 = and i32 %89, 65280
  %91 = icmp ne i32 %90, 0
  br i1 %91, label %92, label %98

92:                                               ; preds = %88
  %93 = load ptr, ptr %14, align 8
  %94 = getelementptr inbounds %struct._zend_refcounted, ptr %93, i32 0, i32 0
  store ptr %94, ptr %4, align 8
  %95 = load ptr, ptr %4, align 8
  %96 = load i32, ptr %95, align 4
  %97 = add i32 %96, 1
  store i32 %97, ptr %95, align 4
  br label %98

98:                                               ; preds = %92, %88
  br label %99

99:                                               ; preds = %98
  %100 = load ptr, ptr %8, align 8
  %101 = call i32 @decrement_function(ptr noundef %100)
  %102 = load ptr, ptr %8, align 8
  store ptr %102, ptr %6, align 8
  %103 = load ptr, ptr %6, align 8
  %104 = getelementptr inbounds %struct._zval_struct, ptr %103, i32 0, i32 1
  %105 = load i8, ptr %104, align 8
  %106 = zext i8 %105 to i32
  %107 = icmp eq i32 %106, 5
  %108 = xor i1 %107, true
  %109 = xor i1 %108, true
  %110 = zext i1 %109 to i32
  %111 = sext i32 %110 to i64
  %112 = icmp ne i64 %111, 0
  br i1 %112, label %113, label %144

113:                                              ; preds = %99
  %114 = load ptr, ptr %10, align 8
  store ptr %114, ptr %7, align 8
  %115 = load ptr, ptr %7, align 8
  %116 = getelementptr inbounds %struct._zval_struct, ptr %115, i32 0, i32 1
  %117 = load i8, ptr %116, align 8
  %118 = zext i8 %117 to i32
  %119 = icmp eq i32 %118, 4
  br i1 %119, label %120, label %144

120:                                              ; preds = %113
  %121 = load ptr, ptr %9, align 8
  %122 = getelementptr inbounds %struct._zend_property_info, ptr %121, i32 0, i32 6
  %123 = getelementptr inbounds %struct.zend_type, ptr %122, i32 0, i32 1
  %124 = load i32, ptr %123, align 8
  %125 = and i32 %124, 32
  %126 = icmp ne i32 %125, 0
  br i1 %126, label %138, label %127

127:                                              ; preds = %120
  %128 = load ptr, ptr %9, align 8
  %129 = call i64 @_zend_jit_throw_dec_prop_error(ptr noundef %128)
  store i64 %129, ptr %16, align 8
  br label %130

130:                                              ; preds = %127
  %131 = load ptr, ptr %8, align 8
  store ptr %131, ptr %17, align 8
  %132 = load i64, ptr %16, align 8
  %133 = load ptr, ptr %17, align 8
  %134 = getelementptr inbounds %struct._zval_struct, ptr %133, i32 0, i32 0
  store i64 %132, ptr %134, align 8
  %135 = load ptr, ptr %17, align 8
  %136 = getelementptr inbounds %struct._zval_struct, ptr %135, i32 0, i32 1
  store i32 4, ptr %136, align 8
  br label %137

137:                                              ; preds = %130
  br label %143

138:                                              ; preds = %120
  %139 = load ptr, ptr %8, align 8
  %140 = getelementptr inbounds %struct._zval_struct, ptr %139, i32 0, i32 2
  %141 = load i32, ptr %140, align 4
  %142 = and i32 %141, -3
  store i32 %142, ptr %140, align 4
  br label %143

143:                                              ; preds = %138, %137
  br label %191

144:                                              ; preds = %113, %99
  %145 = load ptr, ptr %9, align 8
  %146 = load ptr, ptr %8, align 8
  %147 = load ptr, ptr %11, align 8
  %148 = getelementptr inbounds %struct._zend_execute_data, ptr %147, i32 0, i32 3
  %149 = load ptr, ptr %148, align 8
  %150 = getelementptr inbounds %struct.anon.25, ptr %149, i32 0, i32 2
  %151 = load i32, ptr %150, align 4
  %152 = and i32 %151, -2147483648
  %153 = icmp ne i32 %152, 0
  %154 = call zeroext i1 @zend_verify_property_type(ptr noundef %145, ptr noundef %146, i1 noundef zeroext %153)
  %155 = xor i1 %154, true
  %156 = xor i1 %155, true
  %157 = xor i1 %156, true
  %158 = zext i1 %157 to i32
  %159 = sext i32 %158 to i64
  %160 = icmp ne i64 %159, 0
  br i1 %160, label %161, label %185

161:                                              ; preds = %144
  %162 = load ptr, ptr %8, align 8
  call void @zval_ptr_dtor(ptr noundef %162)
  br label %163

163:                                              ; preds = %161
  %164 = load ptr, ptr %8, align 8
  store ptr %164, ptr %18, align 8
  %165 = load ptr, ptr %10, align 8
  store ptr %165, ptr %19, align 8
  %166 = load ptr, ptr %19, align 8
  %167 = getelementptr inbounds %struct._zval_struct, ptr %166, i32 0, i32 0
  %168 = load ptr, ptr %167, align 8
  store ptr %168, ptr %20, align 8
  %169 = load ptr, ptr %19, align 8
  %170 = getelementptr inbounds %struct._zval_struct, ptr %169, i32 0, i32 1
  %171 = load i32, ptr %170, align 8
  store i32 %171, ptr %21, align 4
  br label %172

172:                                              ; preds = %163
  %173 = load ptr, ptr %20, align 8
  %174 = load ptr, ptr %18, align 8
  %175 = getelementptr inbounds %struct._zval_struct, ptr %174, i32 0, i32 0
  store ptr %173, ptr %175, align 8
  %176 = load i32, ptr %21, align 4
  %177 = load ptr, ptr %18, align 8
  %178 = getelementptr inbounds %struct._zval_struct, ptr %177, i32 0, i32 1
  store i32 %176, ptr %178, align 8
  br label %179

179:                                              ; preds = %172
  br label %180

180:                                              ; preds = %179
  br label %181

181:                                              ; preds = %180
  %182 = load ptr, ptr %10, align 8
  %183 = getelementptr inbounds %struct._zval_struct, ptr %182, i32 0, i32 1
  store i32 0, ptr %183, align 8
  br label %184

184:                                              ; preds = %181
  br label %190

185:                                              ; preds = %144
  %186 = load ptr, ptr %8, align 8
  %187 = getelementptr inbounds %struct._zval_struct, ptr %186, i32 0, i32 2
  %188 = load i32, ptr %187, align 4
  %189 = and i32 %188, -3
  store i32 %189, ptr %187, align 4
  br label %190

190:                                              ; preds = %185, %184
  br label %191

191:                                              ; preds = %190, %143, %50
  ret void
}