; Function Attrs: nounwind uwtable
define internal void @zend_jit_post_dec_typed_prop(ptr noundef %0, ptr noundef %1, ptr noundef %2) #0 {
  %4 = getelementptr inbounds i8, ptr %1, i64 4
  %5 = load i32, ptr %4, align 4
  %6 = and i32 %5, 128
  %.not = icmp eq i32 %6, 0
  br i1 %.not, label %.critedge, label %7

7:                                                ; preds = %3
  %8 = getelementptr inbounds i8, ptr %0, i64 12
  %9 = load i32, ptr %8, align 4
  %10 = and i32 %9, 2
  %.not45 = icmp eq i32 %10, 0
  br i1 %.not45, label %11, label %.critedge

11:                                               ; preds = %7
  tail call void @zend_readonly_property_modification_error(ptr noundef nonnull %1) #32
  %.not48 = icmp eq ptr %2, null
  br i1 %.not48, label %60, label %12

12:                                               ; preds = %11
  %13 = getelementptr inbounds i8, ptr %2, i64 8
  store i32 0, ptr %13, align 8
  br label %60

.critedge:                                        ; preds = %3, %7
  %14 = load ptr, ptr getelementptr inbounds (%struct._zend_executor_globals, ptr @executor_globals, i64 0, i32 17), align 8
  %15 = getelementptr inbounds i8, ptr %0, i64 8
  %16 = load i8, ptr %15, align 8
  %17 = icmp eq i8 %16, 10
  br i1 %17, label %18, label %21

18:                                               ; preds = %.critedge
  %19 = load ptr, ptr %0, align 8
  %20 = getelementptr inbounds i8, ptr %19, i64 8
  br label %21

21:                                               ; preds = %18, %.critedge
  %.0 = phi ptr [ %20, %18 ], [ %0, %.critedge ]
  %22 = load ptr, ptr %.0, align 8
  %23 = getelementptr inbounds i8, ptr %.0, i64 8
  %24 = load i32, ptr %23, align 8
  store ptr %22, ptr %2, align 8
  %25 = getelementptr inbounds i8, ptr %2, i64 8
  store i32 %24, ptr %25, align 8
  %26 = and i32 %24, 65280
  %.not46 = icmp eq i32 %26, 0
  br i1 %.not46, label %30, label %27

27:                                               ; preds = %21
  %28 = load i32, ptr %22, align 4
  %29 = add i32 %28, 1
  store i32 %29, ptr %22, align 4
  br label %30

30:                                               ; preds = %21, %27
  %31 = tail call i32 @decrement_function(ptr noundef nonnull %.0) #32
  %32 = load i8, ptr %23, align 8
  %33 = icmp eq i8 %32, 5
  br i1 %33, label %34, label %46

34:                                               ; preds = %30
  %35 = load i8, ptr %25, align 8
  %36 = icmp eq i8 %35, 4
  br i1 %36, label %37, label %46

37:                                               ; preds = %34
  %38 = getelementptr inbounds i8, ptr %1, i64 48
  %39 = load i32, ptr %38, align 8
  %40 = and i32 %39, 32
  %.not47 = icmp eq i32 %40, 0
  br i1 %.not47, label %41, label %42

41:                                               ; preds = %37
  tail call fastcc void @_zend_jit_throw_dec_prop_error(ptr noundef nonnull %1)
  store i64 -9223372036854775808, ptr %.0, align 8
  store i32 4, ptr %23, align 8
  br label %60

42:                                               ; preds = %37
  %43 = getelementptr inbounds i8, ptr %.0, i64 12
  %44 = load i32, ptr %43, align 4
  %45 = and i32 %44, -3
  store i32 %45, ptr %43, align 4
  br label %60

46:                                               ; preds = %34, %30
  %47 = getelementptr inbounds i8, ptr %14, i64 24
  %48 = load ptr, ptr %47, align 8
  %49 = getelementptr inbounds i8, ptr %48, i64 4
  %50 = load i32, ptr %49, align 4
  %51 = icmp slt i32 %50, 0
  %52 = tail call zeroext i1 @zend_verify_property_type(ptr noundef nonnull %1, ptr noundef nonnull %.0, i1 noundef zeroext %51) #32
  br i1 %52, label %56, label %53

53:                                               ; preds = %46
  tail call void @zval_ptr_dtor(ptr noundef nonnull %.0) #32
  %54 = load ptr, ptr %2, align 8
  %55 = load i32, ptr %25, align 8
  store ptr %54, ptr %.0, align 8
  store i32 %55, ptr %23, align 8
  store i32 0, ptr %25, align 8
  br label %60

56:                                               ; preds = %46
  %57 = getelementptr inbounds i8, ptr %.0, i64 12
  %58 = load i32, ptr %57, align 4
  %59 = and i32 %58, -3
  store i32 %59, ptr %57, align 4
  br label %60

60:                                               ; preds = %53, %56, %41, %42, %11, %12
  ret void
}